; Function Attrs: nounwind uwtable
define range(i32 -5, 1) i32 @IDABBDPrecGetNumGfnEvals(ptr noundef %0, ptr noundef writeonly captures(none) %1) local_unnamed_addr #0 {
  %3 = icmp eq ptr %0, null
  br i1 %3, label %4, label %5

4:                                                ; preds = %2
  tail call void (ptr, i32, i32, ptr, ptr, ptr, ...) @IDAProcessError(ptr noundef null, i32 noundef -1, i32 noundef 397, ptr noundef nonnull @__func__.IDABBDPrecGetNumGfnEvals, ptr noundef nonnull @.str, ptr noundef nonnull @.str.1) #9
  br label %18

5:                                                ; preds = %2
  %6 = getelementptr inbounds nuw i8, ptr %0, i64 1048
  %7 = load ptr, ptr %6, align 8, !tbaa !3
  %8 = icmp eq ptr %7, null
  br i1 %8, label %9, label %10

9:                                                ; preds = %5
  tail call void (ptr, i32, i32, ptr, ptr, ptr, ...) @IDAProcessError(ptr noundef nonnull %0, i32 noundef -2, i32 noundef 405, ptr noundef nonnull @__func__.IDABBDPrecGetNumGfnEvals, ptr noundef nonnull @.str, ptr noundef nonnull @.str.2) #9
  br label %18

10:                                               ; preds = %5
  %11 = getelementptr inbounds nuw i8, ptr %7, i64 280
  %12 = load ptr, ptr %11, align 8, !tbaa !62
  %13 = icmp eq ptr %12, null
  br i1 %13, label %14, label %15

14:                                               ; preds = %10
  tail call void (ptr, i32, i32, ptr, ptr, ptr, ...) @IDAProcessError(ptr noundef nonnull %0, i32 noundef -5, i32 noundef 413, ptr noundef nonnull @__func__.IDABBDPrecGetNumGfnEvals, ptr noundef nonnull @.str, ptr noundef nonnull @.str.6) #9
  br label %18

15:                                               ; preds = %10
  %16 = getelementptr inbounds nuw i8, ptr %12, i64 144
  %17 = load i64, ptr %16, align 8, !tbaa !59
  store i64 %17, ptr %1, align 8, !tbaa !46
  br label %18

18:                                               ; preds = %15, %14, %9, %4
  %.0 = phi i32 [ -1, %4 ], [ -2, %9 ], [ -5, %14 ], [ 0, %15 ]
  ret i32 %.0
}